; Function Attrs: mustprogress uwtable
define void @_ZN8QuantLib23AnalyticPTDHestonEngineC2ERKN5boost10shared_ptrINS_33PiecewiseTimeDependentHestonModelEEENS0_17ComplexLogFormulaERKNS_20AnalyticHestonEngine11IntegrationEd(ptr noundef nonnull align 8 dereferenceable(392) %this, ptr noundef nonnull align 8 dereferenceable(16) %model, i32 noundef %cpxLog, ptr nocapture noundef nonnull readonly align 8 dereferenceable(40) %itg, double noundef %andersenPiterbargEpsilon) unnamed_addr #8 align 2 personality ptr @__gxx_personality_v0 {
entry:
  tail call void @_ZN8QuantLib18GenericModelEngineINS_33PiecewiseTimeDependentHestonModelENS_6Option9argumentsENS_14OneAssetOption7resultsEEC2ERKN5boost10shared_ptrIS1_EE(ptr noundef nonnull align 8 dereferenceable(352) %this, ptr noundef nonnull align 8 dereferenceable(16) %model)
  store ptr getelementptr inbounds inrange(-16, 56) (i8, ptr @_ZTVN8QuantLib23AnalyticPTDHestonEngineE, i64 16), ptr %this, align 8, !tbaa !35
  %add.ptr = getelementptr inbounds i8, ptr %this, i64 56
  store ptr getelementptr inbounds inrange(-16, 32) (i8, ptr @_ZTVN8QuantLib23AnalyticPTDHestonEngineE, i64 88), ptr %add.ptr, align 8, !tbaa !35
  %evaluations_ = getelementptr inbounds nuw i8, ptr %this, i64 352
  store i64 0, ptr %evaluations_, align 8, !tbaa !83
  %cpxLog_ = getelementptr inbounds nuw i8, ptr %this, i64 360
  store i32 %cpxLog, ptr %cpxLog_, align 8, !tbaa !110
  %call = invoke noalias noundef nonnull dereferenceable(40) ptr @_Znwm(i64 noundef 40) #31
          to label %invoke.cont unwind label %lpad

invoke.cont:                                      ; preds = %entry
  %integration_ = getelementptr inbounds nuw i8, ptr %this, i64 368
  %0 = load i32, ptr %itg, align 8, !tbaa !120
  store i32 %0, ptr %call, align 8, !tbaa !120
  %integrator_.i = getelementptr inbounds nuw i8, ptr %call, i64 8
  %integrator_3.i = getelementptr inbounds nuw i8, ptr %itg, i64 8
  %1 = load ptr, ptr %integrator_3.i, align 8, !tbaa !125
  store ptr %1, ptr %integrator_.i, align 8, !tbaa !125
  %pn.i.i = getelementptr inbounds nuw i8, ptr %call, i64 16
  %pn3.i.i = getelementptr inbounds nuw i8, ptr %itg, i64 16
  %2 = load ptr, ptr %pn3.i.i, align 8, !tbaa !37
  store ptr %2, ptr %pn.i.i, align 8, !tbaa !37
  %cmp.not.i.i.i = icmp eq ptr %2, null
  br i1 %cmp.not.i.i.i, label %_ZN5boost10shared_ptrIN8QuantLib10IntegratorEEC2ERKS3_.exit.i, label %if.then.i.i.i

if.then.i.i.i:                                    ; preds = %invoke.cont
  %use_count_.i.i.i.i = getelementptr inbounds nuw i8, ptr %2, i64 8
  %3 = atomicrmw add ptr %use_count_.i.i.i.i, i32 1 monotonic, align 4
  br label %_ZN5boost10shared_ptrIN8QuantLib10IntegratorEEC2ERKS3_.exit.i

_ZN5boost10shared_ptrIN8QuantLib10IntegratorEEC2ERKS3_.exit.i: ; preds = %if.then.i.i.i, %invoke.cont
  %gaussianQuadrature_.i = getelementptr inbounds nuw i8, ptr %call, i64 24
  %gaussianQuadrature_4.i = getelementptr inbounds nuw i8, ptr %itg, i64 24
  %4 = load ptr, ptr %gaussianQuadrature_4.i, align 8, !tbaa !126
  store ptr %4, ptr %gaussianQuadrature_.i, align 8, !tbaa !126
  %pn.i3.i = getelementptr inbounds nuw i8, ptr %call, i64 32
  %pn3.i4.i = getelementptr inbounds nuw i8, ptr %itg, i64 32
  %5 = load ptr, ptr %pn3.i4.i, align 8, !tbaa !37
  store ptr %5, ptr %pn.i3.i, align 8, !tbaa !37
  %cmp.not.i.i5.i = icmp eq ptr %5, null
  br i1 %cmp.not.i.i5.i, label %_ZN8QuantLib20AnalyticHestonEngine11IntegrationC2ERKS1_.exit, label %if.then.i.i6.i

if.then.i.i6.i:                                   ; preds = %_ZN5boost10shared_ptrIN8QuantLib10IntegratorEEC2ERKS3_.exit.i
  %use_count_.i.i.i7.i = getelementptr inbounds nuw i8, ptr %5, i64 8
  %6 = atomicrmw add ptr %use_count_.i.i.i7.i, i32 1 monotonic, align 4
  br label %_ZN8QuantLib20AnalyticHestonEngine11IntegrationC2ERKS1_.exit

_ZN8QuantLib20AnalyticHestonEngine11IntegrationC2ERKS1_.exit: ; preds = %_ZN5boost10shared_ptrIN8QuantLib10IntegratorEEC2ERKS3_.exit.i, %if.then.i.i6.i
  store ptr %call, ptr %integration_, align 8, !tbaa !111
  %pn.i = getelementptr inbounds nuw i8, ptr %this, i64 376
  store ptr null, ptr %pn.i, align 8, !tbaa !37
  invoke void @_ZN5boost6detail20sp_pointer_constructIN8QuantLib20AnalyticHestonEngine11IntegrationES4_EEvPNS_10shared_ptrIT_EEPT0_RNS0_12shared_countE(ptr noundef nonnull %integration_, ptr noundef nonnull %call, ptr noundef nonnull align 8 dereferenceable(8) %pn.i)
          to label %invoke.cont2 unwind label %lpad.i

lpad.i:                                           ; preds = %_ZN8QuantLib20AnalyticHestonEngine11IntegrationC2ERKS1_.exit
  %7 = landingpad { ptr, i32 }
          cleanup
  tail call void @_ZN5boost6detail12shared_countD2Ev(ptr noundef nonnull align 8 dereferenceable(8) %pn.i) #28
  br label %lpad.body

invoke.cont2:                                     ; preds = %_ZN8QuantLib20AnalyticHestonEngine11IntegrationC2ERKS1_.exit
  %andersenPiterbargEpsilon_ = getelementptr inbounds nuw i8, ptr %this, i64 384
  store double %andersenPiterbargEpsilon, ptr %andersenPiterbargEpsilon_, align 8, !tbaa !112
  ret void

lpad:                                             ; preds = %entry
  %8 = landingpad { ptr, i32 }
          cleanup
  br label %lpad.body

lpad.body:                                        ; preds = %lpad.i, %lpad
  %eh.lpad-body = phi { ptr, i32 } [ %8, %lpad ], [ %7, %lpad.i ]
  tail call void @_ZN8QuantLib18GenericModelEngineINS_33PiecewiseTimeDependentHestonModelENS_6Option9argumentsENS_14OneAssetOption7resultsEED2Ev(ptr noundef nonnull align 8 dereferenceable(352) %this) #28
  resume { ptr, i32 } %eh.lpad-body
}